target datalayout = "e-m:e-p270:32:32-p271:32:32-p272:64:64-i64:64-i128:128-f80:128-n8:16:32:64-S128"
target triple = "x86_64-pc-linux-gnu"

%"class.std::__cxx11::basic_string" = type { %"struct.std::__cxx11::basic_string<char>::_Alloc_hider", i64, %union.anon }
%"struct.std::__cxx11::basic_string<char>::_Alloc_hider" = type { ptr }
%union.anon = type { i64, [8 x i8] }
%"struct.rocksdb::WriteBatchWithIndex::Rep" = type { %"class.rocksdb::ReadableWriteBatch", %"class.rocksdb::WriteBatchEntryComparator", [8 x i8], %"class.rocksdb::Arena", %"class.rocksdb::SkipList", i64, i64, i8, i8, %"class.std::unordered_map.34", [8 x i8] }
%"class.rocksdb::ReadableWriteBatch" = type { %"class.rocksdb::WriteBatch" }
%"class.rocksdb::WriteBatch" = type { %"class.rocksdb::WriteBatchBase", %"class.std::unique_ptr", %"struct.rocksdb::SavePoint", i8, i8, i8, %"struct.std::atomic", i64, %"class.std::unique_ptr.5", i64, i8, %"class.std::unordered_map", %"class.std::__cxx11::basic_string" }
%"class.rocksdb::WriteBatchBase" = type { ptr }
%"class.std::unique_ptr" = type { %"struct.std::__uniq_ptr_data" }
%"struct.std::__uniq_ptr_data" = type { %"class.std::__uniq_ptr_impl" }
%"class.std::__uniq_ptr_impl" = type { %"class.std::tuple" }
%"class.std::tuple" = type { %"struct.std::_Tuple_impl" }
%"struct.std::_Tuple_impl" = type { %"struct.std::_Head_base.4" }
%"struct.std::_Head_base.4" = type { ptr }
%"struct.rocksdb::SavePoint" = type { i64, i32, i32 }
%"struct.std::atomic" = type { %"struct.std::__atomic_base" }
%"struct.std::__atomic_base" = type { i32 }
%"class.std::unique_ptr.5" = type { %"struct.std::__uniq_ptr_data.6" }
%"struct.std::__uniq_ptr_data.6" = type { %"class.std::__uniq_ptr_impl.7" }
%"class.std::__uniq_ptr_impl.7" = type { %"class.std::tuple.8" }
%"class.std::tuple.8" = type { %"struct.std::_Tuple_impl.9" }
%"struct.std::_Tuple_impl.9" = type { %"struct.std::_Head_base.12" }
%"struct.std::_Head_base.12" = type { ptr }
%"class.std::unordered_map" = type { %"class.std::_Hashtable" }
%"class.std::_Hashtable" = type { ptr, i64, %"struct.std::__detail::_Hash_node_base", i64, %"struct.std::__detail::_Prime_rehash_policy", ptr }
%"struct.std::__detail::_Hash_node_base" = type { ptr }
%"struct.std::__detail::_Prime_rehash_policy" = type { float, i64 }
%"class.rocksdb::WriteBatchEntryComparator" = type { ptr, %"class.std::vector.18", ptr }
%"class.std::vector.18" = type { %"struct.std::_Vector_base.19" }
%"struct.std::_Vector_base.19" = type { %"struct.std::_Vector_base<const rocksdb::Comparator *, std::allocator<const rocksdb::Comparator *>>::_Vector_impl" }
%"struct.std::_Vector_base<const rocksdb::Comparator *, std::allocator<const rocksdb::Comparator *>>::_Vector_impl" = type { %"struct.std::_Vector_base<const rocksdb::Comparator *, std::allocator<const rocksdb::Comparator *>>::_Vector_impl_data" }
%"struct.std::_Vector_base<const rocksdb::Comparator *, std::allocator<const rocksdb::Comparator *>>::_Vector_impl_data" = type { ptr, ptr, ptr }
%"class.rocksdb::Arena" = type { %"class.rocksdb::Allocator", [8 x i8], [2048 x i8], i64, %"class.std::deque", %"class.std::deque.26", i64, ptr, ptr, i64, i64, i64, ptr }
%"class.rocksdb::Allocator" = type { ptr }
%"class.std::deque" = type { %"class.std::_Deque_base" }
%"class.std::_Deque_base" = type { %"struct.std::_Deque_base<std::unique_ptr<char[]>, std::allocator<std::unique_ptr<char[]>>>::_Deque_impl" }
%"struct.std::_Deque_base<std::unique_ptr<char[]>, std::allocator<std::unique_ptr<char[]>>>::_Deque_impl" = type { %"struct.std::_Deque_base<std::unique_ptr<char[]>, std::allocator<std::unique_ptr<char[]>>>::_Deque_impl_data" }
%"struct.std::_Deque_base<std::unique_ptr<char[]>, std::allocator<std::unique_ptr<char[]>>>::_Deque_impl_data" = type { ptr, i64, %"struct.std::_Deque_iterator", %"struct.std::_Deque_iterator" }
%"struct.std::_Deque_iterator" = type { ptr, ptr, ptr, ptr }
%"class.std::deque.26" = type { %"class.std::_Deque_base.27" }
%"class.std::_Deque_base.27" = type { %"struct.std::_Deque_base<rocksdb::MemMapping, std::allocator<rocksdb::MemMapping>>::_Deque_impl" }
%"struct.std::_Deque_base<rocksdb::MemMapping, std::allocator<rocksdb::MemMapping>>::_Deque_impl" = type { %"struct.std::_Deque_base<rocksdb::MemMapping, std::allocator<rocksdb::MemMapping>>::_Deque_impl_data" }
%"struct.std::_Deque_base<rocksdb::MemMapping, std::allocator<rocksdb::MemMapping>>::_Deque_impl_data" = type { ptr, i64, %"struct.std::_Deque_iterator.31", %"struct.std::_Deque_iterator.31" }
%"struct.std::_Deque_iterator.31" = type { ptr, ptr, ptr, ptr }
%"class.rocksdb::SkipList" = type <{ i16, i16, i32, ptr, ptr, ptr, %"struct.std::atomic.32", [4 x i8], ptr, i32, [4 x i8] }>
%"struct.std::atomic.32" = type { %"struct.std::__atomic_base.33" }
%"struct.std::__atomic_base.33" = type { i32 }
%"class.std::unordered_map.34" = type { %"class.std::_Hashtable.35" }
%"class.std::_Hashtable.35" = type { ptr, i64, %"struct.std::__detail::_Hash_node_base", i64, %"struct.std::__detail::_Prime_rehash_policy", ptr }
%"struct.std::__detail::_Hash_node_value_base" = type { %"struct.__gnu_cxx::__aligned_buffer" }
%"struct.__gnu_cxx::__aligned_buffer" = type { %"union.std::aligned_storage<12, 4>::type" }
%"union.std::aligned_storage<12, 4>::type" = type { [12 x i8] }

; Function Attrs: mustprogress nounwind uwtable
define linkonce_odr void @_ZNSt15__new_allocatorINSt8__detail10_Hash_nodeISt4pairIKjN7rocksdb19WriteBatchWithIndex6CFStatEELb0EEEE10deallocateEPS8_m(ptr noundef nonnull align 1 dereferenceable(1) %0, ptr noundef %1, i64 noundef %2) #3 comdat align 2 {
  %4 = alloca ptr, align 8
  %5 = alloca ptr, align 8
  %6 = alloca i64, align 8
  store ptr %0, ptr %4, align 8, !tbaa !595
  store ptr %1, ptr %5, align 8, !tbaa !613
  store i64 %2, ptr %6, align 8, !tbaa !4
  %7 = load ptr, ptr %5, align 8, !tbaa !613
  %8 = load i64, ptr %6, align 8, !tbaa !4
  %9 = mul i64 %8, 24
  call void @_ZdlPvm(ptr noundef %7, i64 noundef %9) #23
  ret void
}

; Function Attrs: mustprogress nounwind uwtable
define linkonce_odr noundef ptr @_ZN9__gnu_cxx16__aligned_bufferISt4pairIKjN7rocksdb19WriteBatchWithIndex6CFStatEEE7_M_addrEv(ptr noundef nonnull align 4 dereferenceable(12) %0) #3 comdat align 2 {
  %2 = alloca ptr, align 8
  store ptr %0, ptr %2, align 8, !tbaa !620
  %3 = load ptr, ptr %2, align 8
  %4 = getelementptr inbounds nuw %"struct.__gnu_cxx::__aligned_buffer", ptr %3, i32 0, i32 0
  ret ptr %4
}

; Function Attrs: mustprogress uwtable
define linkonce_odr void @_ZNSt16allocator_traitsISaINSt8__detail10_Hash_nodeISt4pairIKjN7rocksdb19WriteBatchWithIndex6CFStatEELb0EEEEE10deallocateERS9_PS8_m(ptr noundef nonnull align 1 dereferenceable(1) %0, ptr noundef %1, i64 noundef %2) #5 comdat align 2 {
  %4 = alloca ptr, align 8
  %5 = alloca ptr, align 8
  %6 = alloca i64, align 8
  store ptr %0, ptr %4, align 8, !tbaa !593
  store ptr %1, ptr %5, align 8, !tbaa !613
  store i64 %2, ptr %6, align 8, !tbaa !4
  %7 = load ptr, ptr %4, align 8, !tbaa !593
  %8 = load ptr, ptr %5, align 8, !tbaa !613
  %9 = load i64, ptr %6, align 8, !tbaa !4
  call void @_ZNSt15__new_allocatorINSt8__detail10_Hash_nodeISt4pairIKjN7rocksdb19WriteBatchWithIndex6CFStatEELb0EEEE10deallocateEPS8_m(ptr noundef nonnull align 1 dereferenceable(1) %7, ptr noundef %8, i64 noundef %9)
  ret void
}

; Function Attrs: mustprogress nounwind uwtable
define linkonce_odr noundef ptr @_ZNSt19__ptr_traits_ptr_toIPNSt8__detail10_Hash_nodeISt4pairIKjN7rocksdb19WriteBatchWithIndex6CFStatEELb0EEES8_Lb0EE10pointer_toERS8_(ptr noundef nonnull align 8 dereferenceable(20) %0) #3 comdat align 2 {
  %2 = alloca ptr, align 8
  store ptr %0, ptr %2, align 8, !tbaa !613
  %3 = load ptr, ptr %2, align 8, !tbaa !613
  ret ptr %3
}

; Function Attrs: mustprogress nounwind uwtable
define linkonce_odr void @_ZNSt15__new_allocatorINSt8__detail10_Hash_nodeISt4pairIKjN7rocksdb19WriteBatchWithIndex6CFStatEELb0EEEE7destroyIS7_EEvPT_(ptr noundef nonnull align 1 dereferenceable(1) %0, ptr noundef %1) #3 comdat align 2 {
  %3 = alloca ptr, align 8
  %4 = alloca ptr, align 8
  store ptr %0, ptr %3, align 8, !tbaa !595
  store ptr %1, ptr %4, align 8, !tbaa !616
  ret void
}

; Function Attrs: mustprogress nounwind uwtable
define linkonce_odr noundef ptr @_ZN9__gnu_cxx16__aligned_bufferISt4pairIKjN7rocksdb19WriteBatchWithIndex6CFStatEEE6_M_ptrEv(ptr noundef nonnull align 4 dereferenceable(12) %0) #3 comdat align 2 {
  %2 = alloca ptr, align 8
  store ptr %0, ptr %2, align 8, !tbaa !620
  %3 = load ptr, ptr %2, align 8
  %4 = call noundef ptr @_ZN9__gnu_cxx16__aligned_bufferISt4pairIKjN7rocksdb19WriteBatchWithIndex6CFStatEEE7_M_addrEv(ptr noundef nonnull align 4 dereferenceable(12) %3) #4
  ret ptr %4
}

; Function Attrs: mustprogress nounwind uwtable
define linkonce_odr noundef nonnull align 1 dereferenceable(1) ptr @_ZNSt8__detail21_Hashtable_ebo_helperILi0ESaINS_10_Hash_nodeISt4pairIKjN7rocksdb19WriteBatchWithIndex6CFStatEELb0EEEELb1EE6_M_getEv(ptr noundef nonnull align 1 dereferenceable(1) %0) #3 comdat align 2 {
  %2 = alloca ptr, align 8
  store ptr %0, ptr %2, align 8, !tbaa !591
  %3 = load ptr, ptr %2, align 8
  ret ptr %3
}

; Function Attrs: mustprogress uwtable
define linkonce_odr void @_ZNSt8__detail16_Hashtable_allocISaINS_10_Hash_nodeISt4pairIKjN7rocksdb19WriteBatchWithIndex6CFStatEELb0EEEEE22_M_deallocate_node_ptrEPS8_(ptr noundef nonnull align 1 dereferenceable(1) %0, ptr noundef %1) #5 comdat align 2 {
  %3 = alloca ptr, align 8
  %4 = alloca ptr, align 8
  %5 = alloca ptr, align 8
  store ptr %0, ptr %3, align 8, !tbaa !576
  store ptr %1, ptr %4, align 8, !tbaa !613
  %6 = load ptr, ptr %3, align 8
  call void @llvm.lifetime.start.p0(i64 8, ptr %5) #4
  %7 = load ptr, ptr %4, align 8, !tbaa !613
  %8 = call noundef ptr @_ZNSt19__ptr_traits_ptr_toIPNSt8__detail10_Hash_nodeISt4pairIKjN7rocksdb19WriteBatchWithIndex6CFStatEELb0EEES8_Lb0EE10pointer_toERS8_(ptr noundef nonnull align 8 dereferenceable(20) %7) #4
  store ptr %8, ptr %5, align 8, !tbaa !613
  %9 = call noundef nonnull align 1 dereferenceable(1) ptr @_ZNSt8__detail16_Hashtable_allocISaINS_10_Hash_nodeISt4pairIKjN7rocksdb19WriteBatchWithIndex6CFStatEELb0EEEEE17_M_node_allocatorEv(ptr noundef nonnull align 1 dereferenceable(1) %6)
  %10 = load ptr, ptr %5, align 8, !tbaa !613
  call void @_ZNSt16allocator_traitsISaINSt8__detail10_Hash_nodeISt4pairIKjN7rocksdb19WriteBatchWithIndex6CFStatEELb0EEEEE10deallocateERS9_PS8_m(ptr noundef nonnull align 1 dereferenceable(1) %9, ptr noundef %10, i64 noundef 1)
  call void @llvm.lifetime.end.p0(i64 8, ptr %5) #4
  ret void
}

; Function Attrs: mustprogress nounwind uwtable
define linkonce_odr void @_ZNSt16allocator_traitsISaINSt8__detail10_Hash_nodeISt4pairIKjN7rocksdb19WriteBatchWithIndex6CFStatEELb0EEEEE7destroyIS7_EEvRS9_PT_(ptr noundef nonnull align 1 dereferenceable(1) %0, ptr noundef %1) #3 comdat align 2 {
  %3 = alloca ptr, align 8
  %4 = alloca ptr, align 8
  store ptr %0, ptr %3, align 8, !tbaa !593
  store ptr %1, ptr %4, align 8, !tbaa !616
  %5 = load ptr, ptr %3, align 8, !tbaa !593
  %6 = load ptr, ptr %4, align 8, !tbaa !616
  call void @_ZNSt15__new_allocatorINSt8__detail10_Hash_nodeISt4pairIKjN7rocksdb19WriteBatchWithIndex6CFStatEELb0EEEE7destroyIS7_EEvPT_(ptr noundef nonnull align 1 dereferenceable(1) %5, ptr noundef %6) #4
  ret void
}

; Function Attrs: mustprogress nounwind uwtable
define linkonce_odr noundef ptr @_ZNSt8__detail21_Hash_node_value_baseISt4pairIKjN7rocksdb19WriteBatchWithIndex6CFStatEEE9_M_valptrEv(ptr noundef nonnull align 4 dereferenceable(12) %0) #3 comdat align 2 {
  %2 = alloca ptr, align 8
  store ptr %0, ptr %2, align 8, !tbaa !618
  %3 = load ptr, ptr %2, align 8
  %4 = getelementptr inbounds nuw %"struct.std::__detail::_Hash_node_value_base", ptr %3, i32 0, i32 0
  %5 = call noundef ptr @_ZN9__gnu_cxx16__aligned_bufferISt4pairIKjN7rocksdb19WriteBatchWithIndex6CFStatEEE6_M_ptrEv(ptr noundef nonnull align 4 dereferenceable(12) %4) #4
  ret ptr %5
}

; Function Attrs: mustprogress uwtable
define linkonce_odr noundef nonnull align 1 dereferenceable(1) ptr @_ZNSt8__detail16_Hashtable_allocISaINS_10_Hash_nodeISt4pairIKjN7rocksdb19WriteBatchWithIndex6CFStatEELb0EEEEE17_M_node_allocatorEv(ptr noundef nonnull align 1 dereferenceable(1) %0) #5 comdat align 2 {
  %2 = alloca ptr, align 8
  store ptr %0, ptr %2, align 8, !tbaa !576
  %3 = load ptr, ptr %2, align 8
  %4 = call noundef nonnull align 1 dereferenceable(1) ptr @_ZNSt8__detail21_Hashtable_ebo_helperILi0ESaINS_10_Hash_nodeISt4pairIKjN7rocksdb19WriteBatchWithIndex6CFStatEELb0EEEELb1EE6_M_getEv(ptr noundef nonnull align 1 dereferenceable(1) %3)
  ret ptr %4
}

; Function Attrs: mustprogress uwtable
define linkonce_odr void @_ZNSt8__detail16_Hashtable_allocISaINS_10_Hash_nodeISt4pairIKjN7rocksdb19WriteBatchWithIndex6CFStatEELb0EEEEE18_M_deallocate_nodeEPS8_(ptr noundef nonnull align 1 dereferenceable(1) %0, ptr noundef %1) #5 comdat align 2 {
  %3 = alloca ptr, align 8
  %4 = alloca ptr, align 8
  store ptr %0, ptr %3, align 8, !tbaa !576
  store ptr %1, ptr %4, align 8, !tbaa !613
  %5 = load ptr, ptr %3, align 8
  %6 = call noundef nonnull align 1 dereferenceable(1) ptr @_ZNSt8__detail16_Hashtable_allocISaINS_10_Hash_nodeISt4pairIKjN7rocksdb19WriteBatchWithIndex6CFStatEELb0EEEEE17_M_node_allocatorEv(ptr noundef nonnull align 1 dereferenceable(1) %5)
  %7 = load ptr, ptr %4, align 8, !tbaa !613
  %8 = getelementptr inbounds i8, ptr %7, i64 8
  %9 = call noundef ptr @_ZNSt8__detail21_Hash_node_value_baseISt4pairIKjN7rocksdb19WriteBatchWithIndex6CFStatEEE9_M_valptrEv(ptr noundef nonnull align 4 dereferenceable(12) %8) #4
  call void @_ZNSt16allocator_traitsISaINSt8__detail10_Hash_nodeISt4pairIKjN7rocksdb19WriteBatchWithIndex6CFStatEELb0EEEEE7destroyIS7_EEvRS9_PT_(ptr noundef nonnull align 1 dereferenceable(1) %6, ptr noundef %9) #4
  %10 = load ptr, ptr %4, align 8, !tbaa !613
  call void @_ZNSt8__detail16_Hashtable_allocISaINS_10_Hash_nodeISt4pairIKjN7rocksdb19WriteBatchWithIndex6CFStatEELb0EEEEE22_M_deallocate_node_ptrEPS8_(ptr noundef nonnull align 1 dereferenceable(1) %5, ptr noundef %10)
  ret void
}

; Function Attrs: mustprogress nounwind uwtable
define linkonce_odr noundef ptr @_ZNKSt8__detail10_Hash_nodeISt4pairIKjN7rocksdb19WriteBatchWithIndex6CFStatEELb0EE7_M_nextEv(ptr noundef nonnull align 8 dereferenceable(20) %0) #3 comdat align 2 {
  %2 = alloca ptr, align 8
  store ptr %0, ptr %2, align 8, !tbaa !613
  %3 = load ptr, ptr %2, align 8
  %4 = getelementptr inbounds nuw %"struct.std::__detail::_Hash_node_base", ptr %3, i32 0, i32 0
  %5 = load ptr, ptr %4, align 8, !tbaa !579
  ret ptr %5
}

; Function Attrs: noinline noreturn nounwind uwtable
define linkonce_odr hidden void @__clang_call_terminate(ptr noundef %0) #15 comdat {
  %2 = call ptr @__cxa_begin_catch(ptr %0) #4
  call void @_ZSt9terminatev() #19
  unreachable
}

; Function Attrs: mustprogress uwtable
define linkonce_odr void @_ZNSt8__detail16_Hashtable_allocISaINS_10_Hash_nodeISt4pairIKjN7rocksdb19WriteBatchWithIndex6CFStatEELb0EEEEE19_M_deallocate_nodesEPS8_(ptr noundef nonnull align 1 dereferenceable(1) %0, ptr noundef %1) #5 comdat align 2 {
  %3 = alloca ptr, align 8
  %4 = alloca ptr, align 8
  %5 = alloca ptr, align 8
  store ptr %0, ptr %3, align 8, !tbaa !576
  store ptr %1, ptr %4, align 8, !tbaa !613
  %6 = load ptr, ptr %3, align 8
  br label %7

7:                                                ; preds = %10, %2
  %8 = load ptr, ptr %4, align 8, !tbaa !613
  %9 = icmp ne ptr %8, null
  br i1 %9, label %10, label %15

10:                                               ; preds = %7
  call void @llvm.lifetime.start.p0(i64 8, ptr %5) #4
  %11 = load ptr, ptr %4, align 8, !tbaa !613
  store ptr %11, ptr %5, align 8, !tbaa !613
  %12 = load ptr, ptr %4, align 8, !tbaa !613
  %13 = call noundef ptr @_ZNKSt8__detail10_Hash_nodeISt4pairIKjN7rocksdb19WriteBatchWithIndex6CFStatEELb0EE7_M_nextEv(ptr noundef nonnull align 8 dereferenceable(20) %12) #4
  store ptr %13, ptr %4, align 8, !tbaa !613
  %14 = load ptr, ptr %5, align 8, !tbaa !613
  call void @_ZNSt8__detail16_Hashtable_allocISaINS_10_Hash_nodeISt4pairIKjN7rocksdb19WriteBatchWithIndex6CFStatEELb0EEEEE18_M_deallocate_nodeEPS8_(ptr noundef nonnull align 1 dereferenceable(1) %6, ptr noundef %14)
  call void @llvm.lifetime.end.p0(i64 8, ptr %5) #4
  br label %7, !llvm.loop !615

15:                                               ; preds = %7
  ret void
}

; Function Attrs: mustprogress nounwind uwtable
define linkonce_odr noundef ptr @_ZNKSt10_HashtableIjSt4pairIKjN7rocksdb19WriteBatchWithIndex6CFStatEESaIS5_ENSt8__detail10_Select1stESt8equal_toIjESt4hashIjENS7_18_Mod_range_hashingENS7_20_Default_ranged_hashENS7_20_Prime_rehash_policyENS7_17_Hashtable_traitsILb0ELb0ELb1EEEE8_M_beginEv(ptr noundef nonnull align 8 dereferenceable(56) %0) #3 comdat align 2 {
  %2 = alloca ptr, align 8
  store ptr %0, ptr %2, align 8, !tbaa !568
  %3 = load ptr, ptr %2, align 8
  %4 = getelementptr inbounds nuw %"class.std::_Hashtable.35", ptr %3, i32 0, i32 2
  %5 = getelementptr inbounds nuw %"struct.std::__detail::_Hash_node_base", ptr %4, i32 0, i32 0
  %6 = load ptr, ptr %5, align 8, !tbaa !612
  ret ptr %6
}

; Function Attrs: mustprogress nounwind uwtable
define linkonce_odr void @_ZNSt10_HashtableIjSt4pairIKjN7rocksdb19WriteBatchWithIndex6CFStatEESaIS5_ENSt8__detail10_Select1stESt8equal_toIjESt4hashIjENS7_18_Mod_range_hashingENS7_20_Default_ranged_hashENS7_20_Prime_rehash_policyENS7_17_Hashtable_traitsILb0ELb0ELb1EEEE5clearEv(ptr noundef nonnull align 8 dereferenceable(56) %0) #3 comdat align 2 personality ptr @__gxx_personality_v0 {
  %2 = alloca ptr, align 8
  store ptr %0, ptr %2, align 8, !tbaa !568
  %3 = load ptr, ptr %2, align 8
  %4 = invoke noundef ptr @_ZNKSt10_HashtableIjSt4pairIKjN7rocksdb19WriteBatchWithIndex6CFStatEESaIS5_ENSt8__detail10_Select1stESt8equal_toIjESt4hashIjENS7_18_Mod_range_hashingENS7_20_Default_ranged_hashENS7_20_Prime_rehash_policyENS7_17_Hashtable_traitsILb0ELb0ELb1EEEE8_M_beginEv(ptr noundef nonnull align 8 dereferenceable(56) %3)
          to label %5 unwind label %15

5:                                                ; preds = %1
  invoke void @_ZNSt8__detail16_Hashtable_allocISaINS_10_Hash_nodeISt4pairIKjN7rocksdb19WriteBatchWithIndex6CFStatEELb0EEEEE19_M_deallocate_nodesEPS8_(ptr noundef nonnull align 1 dereferenceable(1) %3, ptr noundef %4)
          to label %6 unwind label %15

6:                                                ; preds = %5
  %7 = getelementptr inbounds nuw %"class.std::_Hashtable.35", ptr %3, i32 0, i32 0
  %8 = load ptr, ptr %7, align 8, !tbaa !570
  %9 = getelementptr inbounds nuw %"class.std::_Hashtable.35", ptr %3, i32 0, i32 1
  %10 = load i64, ptr %9, align 8, !tbaa !571
  %11 = mul i64 %10, 8
  call void @llvm.memset.p0.i64(ptr align 8 %8, i8 0, i64 %11, i1 false)
  %12 = getelementptr inbounds nuw %"class.std::_Hashtable.35", ptr %3, i32 0, i32 3
  store i64 0, ptr %12, align 8, !tbaa !572
  %13 = getelementptr inbounds nuw %"class.std::_Hashtable.35", ptr %3, i32 0, i32 2
  %14 = getelementptr inbounds nuw %"struct.std::__detail::_Hash_node_base", ptr %13, i32 0, i32 0
  store ptr null, ptr %14, align 8, !tbaa !612
  ret void

15:                                               ; preds = %5, %1
  %16 = landingpad { ptr, i32 }
          catch ptr null
  %17 = extractvalue { ptr, i32 } %16, 0
  call void @__clang_call_terminate(ptr %17) #19
  unreachable
}

; Function Attrs: mustprogress nounwind uwtable
define linkonce_odr void @_ZNSt13unordered_mapIjN7rocksdb19WriteBatchWithIndex6CFStatESt4hashIjESt8equal_toIjESaISt4pairIKjS2_EEE5clearEv(ptr noundef nonnull align 8 dereferenceable(56) %0) #3 comdat align 2 {
  %2 = alloca ptr, align 8
  store ptr %0, ptr %2, align 8, !tbaa !158
  %3 = load ptr, ptr %2, align 8
  %4 = getelementptr inbounds nuw %"class.std::unordered_map.34", ptr %3, i32 0, i32 0
  call void @_ZNSt10_HashtableIjSt4pairIKjN7rocksdb19WriteBatchWithIndex6CFStatEESaIS5_ENSt8__detail10_Select1stESt8equal_toIjESt4hashIjENS7_18_Mod_range_hashingENS7_20_Default_ranged_hashENS7_20_Prime_rehash_policyENS7_17_Hashtable_traitsILb0ELb0ELb1EEEE5clearEv(ptr noundef nonnull align 8 dereferenceable(56) %4) #4
  ret void
}

; Function Attrs: mustprogress uwtable
define void @_ZN7rocksdb19WriteBatchWithIndex3Rep5ClearEv(ptr noundef nonnull align 16 dereferenceable(2632) %0) #5 align 2 {
  %2 = alloca ptr, align 8
  store ptr %0, ptr %2, align 8, !tbaa !52
  %3 = load ptr, ptr %2, align 8
  %4 = getelementptr inbounds nuw %"struct.rocksdb::WriteBatchWithIndex::Rep", ptr %3, i32 0, i32 0
  call void @_ZN7rocksdb10WriteBatch5ClearEv(ptr noundef nonnull align 8 dereferenceable(160) %4)
  %5 = getelementptr inbounds nuw %"struct.rocksdb::WriteBatchWithIndex::Rep", ptr %3, i32 0, i32 9
  call void @_ZNSt13unordered_mapIjN7rocksdb19WriteBatchWithIndex6CFStatESt4hashIjESt8equal_toIjESaISt4pairIKjS2_EEE5clearEv(ptr noundef nonnull align 8 dereferenceable(56) %5) #4
  call void @_ZN7rocksdb19WriteBatchWithIndex3Rep10ClearIndexEv(ptr noundef nonnull align 16 dereferenceable(2632) %3)
  ret void
}