; Function Attrs: mustprogress uwtable
define void @_ZN7rocksdb19WriteBatchWithIndex3Rep5ClearEv(ptr noundef nonnull align 16 dereferenceable(2632) %0) local_unnamed_addr #4 align 2 personality ptr @__gxx_personality_v0 {
  tail call void @_ZN7rocksdb10WriteBatch5ClearEv(ptr noundef nonnull align 8 dereferenceable(160) %0)
  %2 = getelementptr inbounds nuw i8, ptr %0, i64 2592
  %3 = load ptr, ptr %2, align 16, !tbaa !164
  %.not5.i.i.i = icmp eq ptr %3, null
  br i1 %.not5.i.i.i, label %_ZNSt13unordered_mapIjN7rocksdb19WriteBatchWithIndex6CFStatESt4hashIjESt8equal_toIjESaISt4pairIKjS2_EEE5clearEv.exit, label %.lr.ph.i.i.i

.lr.ph.i.i.i:                                     ; preds = %1, %.lr.ph.i.i.i
  %.06.i.i.i = phi ptr [ %4, %.lr.ph.i.i.i ], [ %3, %1 ]
  %4 = load ptr, ptr %.06.i.i.i, align 8, !tbaa !126
  tail call void @_ZdlPvm(ptr noundef nonnull %.06.i.i.i, i64 noundef 24) #25
  %.not.i.i.i = icmp eq ptr %4, null
  br i1 %.not.i.i.i, label %_ZNSt13unordered_mapIjN7rocksdb19WriteBatchWithIndex6CFStatESt4hashIjESt8equal_toIjESaISt4pairIKjS2_EEE5clearEv.exit, label %.lr.ph.i.i.i, !llvm.loop !165

_ZNSt13unordered_mapIjN7rocksdb19WriteBatchWithIndex6CFStatESt4hashIjESt8equal_toIjESaISt4pairIKjS2_EEE5clearEv.exit: ; preds = %.lr.ph.i.i.i, %1
  %5 = getelementptr inbounds nuw i8, ptr %0, i64 2576
  %6 = load ptr, ptr %5, align 16, !tbaa !124
  %7 = getelementptr inbounds nuw i8, ptr %0, i64 2584
  %8 = load i64, ptr %7, align 8, !tbaa !123
  %9 = shl i64 %8, 3
  tail call void @llvm.memset.p0.i64(ptr align 8 %6, i8 0, i64 %9, i1 false)
  tail call void @llvm.memset.p0.i64(ptr noundef nonnull align 16 dereferenceable(16) %2, i8 0, i64 16, i1 false)
  tail call void @_ZN7rocksdb19WriteBatchWithIndex3Rep10ClearIndexEv(ptr noundef nonnull align 16 dereferenceable(2632) %0)
  ret void
}